; Function Attrs: cold mustprogress nofree norecurse nosync nounwind optsize willreturn memory(write, argmem: readwrite, inaccessiblemem: none) uwtable
define internal noundef i32 @dfpwm_enc_init(ptr noundef captures(none) initializes((648, 652)) %0) #0 {
  %2 = getelementptr inbounds nuw i8, ptr %0, i64 32
  %3 = load ptr, ptr %2, align 8, !tbaa !4
  store i32 0, ptr %3, align 4, !tbaa !27
  %4 = getelementptr inbounds nuw i8, ptr %3, i64 4
  store i32 0, ptr %4, align 4, !tbaa !29
  %5 = getelementptr inbounds nuw i8, ptr %3, i64 8
  store i32 0, ptr %5, align 4, !tbaa !30
  %6 = getelementptr inbounds nuw i8, ptr %3, i64 12
  store i32 -128, ptr %6, align 4, !tbaa !31
  %7 = getelementptr inbounds nuw i8, ptr %0, i64 648
  store i32 1, ptr %7, align 8, !tbaa !32
  ret i32 0
}